; Function Attrs: mustprogress nounwind uwtable
define void @_ZN3nix9PathLocksD2Ev(ptr noundef nonnull align 8 dereferenceable(25) %0) unnamed_addr #7 align 2 personality ptr @__gxx_personality_v0 {
  invoke void @_ZN3nix9PathLocks6unlockEv(ptr noundef nonnull align 8 dereferenceable(25) %0)
          to label %7 unwind label %2

2:                                                ; preds = %1
  %3 = landingpad { ptr, i32 }
          catch ptr null
  %4 = extractvalue { ptr, i32 } %3, 0
  %5 = tail call ptr @__cxa_begin_catch(ptr %4) #27
  invoke void @_ZN3nix15ignoreExceptionENS_9VerbosityE(i32 noundef 0)
          to label %6 unwind label %17

6:                                                ; preds = %2
  invoke void @__cxa_end_catch()
          to label %7 unwind label %17

7:                                                ; preds = %6, %1
  %8 = load ptr, ptr %0, align 8
  %.not8.i.i.i = icmp eq ptr %8, %0
  br i1 %.not8.i.i.i, label %_ZNSt7__cxx114listISt4pairIiNS_12basic_stringIcSt11char_traitsIcESaIcEEEESaIS7_EED2Ev.exit, label %.lr.ph.i.i.i

.lr.ph.i.i.i:                                     ; preds = %7, %_ZNSt16allocator_traitsISaISt10_List_nodeISt4pairIiNSt7__cxx1112basic_stringIcSt11char_traitsIcESaIcEEEEEEE7destroyIS8_EEvRSA_PT_.exit.i.i.i
  %.09.i.i.i = phi ptr [ %9, %_ZNSt16allocator_traitsISaISt10_List_nodeISt4pairIiNSt7__cxx1112basic_stringIcSt11char_traitsIcESaIcEEEEEEE7destroyIS8_EEvRSA_PT_.exit.i.i.i ], [ %8, %7 ]
  %9 = load ptr, ptr %.09.i.i.i, align 8
  %10 = getelementptr inbounds i8, ptr %.09.i.i.i, i64 24
  %11 = load ptr, ptr %10, align 8
  %12 = getelementptr inbounds i8, ptr %.09.i.i.i, i64 40
  %13 = icmp eq ptr %11, %12
  br i1 %13, label %_ZNKSt7__cxx1112basic_stringIcSt11char_traitsIcESaIcEE11_M_is_localEv.exit.thread.i.i.i.i.i.i.i.i, label %_ZNKSt7__cxx1112basic_stringIcSt11char_traitsIcESaIcEE11_M_is_localEv.exit.i.i.i.i.i.i.i.i

_ZNKSt7__cxx1112basic_stringIcSt11char_traitsIcESaIcEE11_M_is_localEv.exit.thread.i.i.i.i.i.i.i.i: ; preds = %.lr.ph.i.i.i
  %14 = getelementptr inbounds i8, ptr %.09.i.i.i, i64 32
  %15 = load i64, ptr %14, align 8
  %16 = icmp ult i64 %15, 16
  tail call void @llvm.assume(i1 %16)
  br label %_ZNSt16allocator_traitsISaISt10_List_nodeISt4pairIiNSt7__cxx1112basic_stringIcSt11char_traitsIcESaIcEEEEEEE7destroyIS8_EEvRSA_PT_.exit.i.i.i

_ZNKSt7__cxx1112basic_stringIcSt11char_traitsIcESaIcEE11_M_is_localEv.exit.i.i.i.i.i.i.i.i: ; preds = %.lr.ph.i.i.i
  tail call void @_ZdlPv(ptr noundef %11) #30
  br label %_ZNSt16allocator_traitsISaISt10_List_nodeISt4pairIiNSt7__cxx1112basic_stringIcSt11char_traitsIcESaIcEEEEEEE7destroyIS8_EEvRSA_PT_.exit.i.i.i

_ZNSt16allocator_traitsISaISt10_List_nodeISt4pairIiNSt7__cxx1112basic_stringIcSt11char_traitsIcESaIcEEEEEEE7destroyIS8_EEvRSA_PT_.exit.i.i.i: ; preds = %_ZNKSt7__cxx1112basic_stringIcSt11char_traitsIcESaIcEE11_M_is_localEv.exit.i.i.i.i.i.i.i.i, %_ZNKSt7__cxx1112basic_stringIcSt11char_traitsIcESaIcEE11_M_is_localEv.exit.thread.i.i.i.i.i.i.i.i
  tail call void @_ZNSaIcED2Ev(ptr noundef nonnull align 1 dereferenceable(1) %10) #27
  tail call void @_ZdlPv(ptr noundef nonnull %.09.i.i.i) #30
  %.not.i.i.i = icmp eq ptr %9, %0
  br i1 %.not.i.i.i, label %_ZNSt7__cxx114listISt4pairIiNS_12basic_stringIcSt11char_traitsIcESaIcEEEESaIS7_EED2Ev.exit, label %.lr.ph.i.i.i, !llvm.loop !9

_ZNSt7__cxx114listISt4pairIiNS_12basic_stringIcSt11char_traitsIcESaIcEEEESaIS7_EED2Ev.exit: ; preds = %_ZNSt16allocator_traitsISaISt10_List_nodeISt4pairIiNSt7__cxx1112basic_stringIcSt11char_traitsIcESaIcEEEEEEE7destroyIS8_EEvRSA_PT_.exit.i.i.i, %7
  ret void

17:                                               ; preds = %6, %2
  %18 = landingpad { ptr, i32 }
          catch ptr null
  %19 = extractvalue { ptr, i32 } %18, 0
  tail call void @__clang_call_terminate(ptr %19) #31
  unreachable
}